target datalayout = "e-m:e-p270:32:32-p271:32:32-p272:64:64-i64:64-i128:128-f80:128-n8:16:32:64-S128"
target triple = "x86_64-pc-linux-gnu"

%struct.inspect_extent_util_stats_s = type { i64, i64, i64 }

; Function Attrs: alwaysinline nounwind uwtable
define internal ptr @tsd_tsdn(ptr noundef %0) #2 {
  %2 = alloca ptr, align 8
  store ptr %0, ptr %2, align 8, !tbaa !4
  %3 = load ptr, ptr %2, align 8, !tbaa !4
  ret ptr %3
}

; Function Attrs: nounwind uwtable
define internal i32 @experimental_utilization_batch_query_ctl(ptr noundef %0, ptr noundef %1, i64 noundef %2, ptr noundef %3, ptr noundef %4, ptr noundef %5, i64 noundef %6) #0 {
  %8 = alloca ptr, align 8
  %9 = alloca ptr, align 8
  %10 = alloca i64, align 8
  %11 = alloca ptr, align 8
  %12 = alloca ptr, align 8
  %13 = alloca ptr, align 8
  %14 = alloca i64, align 8
  %15 = alloca i32, align 4
  %16 = alloca i64, align 8
  %17 = alloca ptr, align 8
  %18 = alloca ptr, align 8
  %19 = alloca i64, align 8
  store ptr %0, ptr %8, align 8, !tbaa !4
  store ptr %1, ptr %9, align 8, !tbaa !12
  store i64 %2, ptr %10, align 8, !tbaa !14
  store ptr %3, ptr %11, align 8, !tbaa !11
  store ptr %4, ptr %12, align 8, !tbaa !12
  store ptr %5, ptr %13, align 8, !tbaa !11
  store i64 %6, ptr %14, align 8, !tbaa !14
  call void @llvm.lifetime.start.p0(i64 4, ptr %15) #13
  br label %20

20:                                               ; preds = %7
  br label %21

21:                                               ; preds = %20
  br label %22

22:                                               ; preds = %21
  call void @llvm.lifetime.start.p0(i64 8, ptr %16) #13
  %23 = load i64, ptr %14, align 8, !tbaa !14
  %24 = udiv i64 %23, 8
  store i64 %24, ptr %16, align 8, !tbaa !14
  %25 = load ptr, ptr %11, align 8, !tbaa !11
  %26 = icmp eq ptr %25, null
  br i1 %26, label %47, label %27

27:                                               ; preds = %22
  %28 = load ptr, ptr %12, align 8, !tbaa !12
  %29 = icmp eq ptr %28, null
  br i1 %29, label %47, label %30

30:                                               ; preds = %27
  %31 = load ptr, ptr %13, align 8, !tbaa !11
  %32 = icmp eq ptr %31, null
  br i1 %32, label %47, label %33

33:                                               ; preds = %30
  %34 = load i64, ptr %14, align 8, !tbaa !14
  %35 = icmp eq i64 %34, 0
  br i1 %35, label %47, label %36

36:                                               ; preds = %33
  %37 = load i64, ptr %14, align 8, !tbaa !14
  %38 = load i64, ptr %16, align 8, !tbaa !14
  %39 = mul i64 %38, 8
  %40 = icmp ne i64 %37, %39
  br i1 %40, label %47, label %41

41:                                               ; preds = %36
  %42 = load ptr, ptr %12, align 8, !tbaa !12
  %43 = load i64, ptr %42, align 8, !tbaa !14
  %44 = load i64, ptr %16, align 8, !tbaa !14
  %45 = mul i64 %44, 24
  %46 = icmp ne i64 %43, %45
  br i1 %46, label %47, label %48

47:                                               ; preds = %41, %36, %33, %30, %27, %22
  store i32 22, ptr %15, align 4, !tbaa !20
  br label %78

48:                                               ; preds = %41
  %49 = load ptr, ptr %13, align 8, !tbaa !11
  store ptr %49, ptr %17, align 8, !tbaa !11
  %50 = load ptr, ptr %11, align 8, !tbaa !11
  store ptr %50, ptr %18, align 8, !tbaa !352
  store i64 0, ptr %19, align 8, !tbaa !14
  br label %51

51:                                               ; preds = %74, %48
  %52 = load i64, ptr %19, align 8, !tbaa !14
  %53 = load i64, ptr %16, align 8, !tbaa !14
  %54 = icmp ult i64 %52, %53
  br i1 %54, label %55, label %77

55:                                               ; preds = %51
  %56 = load ptr, ptr %8, align 8, !tbaa !4
  %57 = call ptr @tsd_tsdn(ptr noundef %56)
  %58 = load ptr, ptr %17, align 8, !tbaa !11
  %59 = load i64, ptr %19, align 8, !tbaa !14
  %60 = getelementptr inbounds nuw ptr, ptr %58, i64 %59
  %61 = load ptr, ptr %60, align 8, !tbaa !11
  %62 = load ptr, ptr %18, align 8, !tbaa !352
  %63 = load i64, ptr %19, align 8, !tbaa !14
  %64 = getelementptr inbounds nuw %struct.inspect_extent_util_stats_s, ptr %62, i64 %63
  %65 = getelementptr inbounds nuw %struct.inspect_extent_util_stats_s, ptr %64, i32 0, i32 0
  %66 = load ptr, ptr %18, align 8, !tbaa !352
  %67 = load i64, ptr %19, align 8, !tbaa !14
  %68 = getelementptr inbounds nuw %struct.inspect_extent_util_stats_s, ptr %66, i64 %67
  %69 = getelementptr inbounds nuw %struct.inspect_extent_util_stats_s, ptr %68, i32 0, i32 1
  %70 = load ptr, ptr %18, align 8, !tbaa !352
  %71 = load i64, ptr %19, align 8, !tbaa !14
  %72 = getelementptr inbounds nuw %struct.inspect_extent_util_stats_s, ptr %70, i64 %71
  %73 = getelementptr inbounds nuw %struct.inspect_extent_util_stats_s, ptr %72, i32 0, i32 2
  call void @je_inspect_extent_util_stats_get(ptr noundef %57, ptr noundef %61, ptr noundef %65, ptr noundef %69, ptr noundef %73)
  br label %74

74:                                               ; preds = %55
  %75 = load i64, ptr %19, align 8, !tbaa !14
  %76 = add i64 %75, 1
  store i64 %76, ptr %19, align 8, !tbaa !14
  br label %51, !llvm.loop !354

77:                                               ; preds = %51
  store i32 0, ptr %15, align 4, !tbaa !20
  br label %78

78:                                               ; preds = %77, %47
  %79 = load i32, ptr %15, align 4, !tbaa !20
  call void @llvm.lifetime.end.p0(i64 8, ptr %16) #13
  call void @llvm.lifetime.end.p0(i64 4, ptr %15) #13
  ret i32 %79
}