; Function Attrs: nounwind uwtable
define internal range(i32 0, 23) i32 @experimental_utilization_batch_query_ctl(ptr noundef %0, ptr readnone captures(none) %1, i64 %2, ptr noundef %3, ptr noundef readonly captures(address_is_null) %4, ptr noundef readonly captures(address_is_null) %5, i64 noundef %6) #0 {
  %8 = lshr i64 %6, 3
  %9 = icmp ne ptr %3, null
  %10 = icmp ne ptr %4, null
  %or.cond.not41 = and i1 %9, %10
  %11 = icmp ne ptr %5, null
  %or.cond3.not38 = and i1 %or.cond.not41, %11
  %12 = icmp ne i64 %6, 0
  %or.cond5.not36 = and i1 %or.cond3.not38, %12
  %13 = and i64 %6, 7
  %.not = icmp eq i64 %13, 0
  %or.cond34 = and i1 %or.cond5.not36, %.not
  br i1 %or.cond34, label %14, label %.loopexit

14:                                               ; preds = %7
  %15 = load i64, ptr %4, align 8, !tbaa !4
  %16 = mul i64 %8, 24
  %.not33 = icmp eq i64 %15, %16
  br i1 %.not33, label %.lr.ph, label %.loopexit

.lr.ph:                                           ; preds = %14, %.lr.ph
  %.042 = phi i64 [ %22, %.lr.ph ], [ 0, %14 ]
  %17 = getelementptr inbounds nuw ptr, ptr %5, i64 %.042
  %18 = load ptr, ptr %17, align 8, !tbaa !230
  %19 = getelementptr inbounds nuw %struct.inspect_extent_util_stats_s, ptr %3, i64 %.042
  %20 = getelementptr inbounds nuw i8, ptr %19, i64 8
  %21 = getelementptr inbounds nuw i8, ptr %19, i64 16
  tail call void @je_inspect_extent_util_stats_get(ptr noundef %0, ptr noundef %18, ptr noundef nonnull %19, ptr noundef nonnull %20, ptr noundef nonnull %21) #15
  %22 = add nuw nsw i64 %.042, 1
  %exitcond.not = icmp eq i64 %22, %8
  br i1 %exitcond.not, label %.loopexit, label %.lr.ph, !llvm.loop !288

.loopexit:                                        ; preds = %.lr.ph, %7, %14
  %.028 = phi i32 [ 22, %14 ], [ 22, %7 ], [ 0, %.lr.ph ]
  ret i32 %.028
}